target datalayout = "e-m:e-p270:32:32-p271:32:32-p272:64:64-i64:64-i128:128-f80:128-n8:16:32:64-S128"
target triple = "x86_64-pc-linux-gnu"

%"struct.llvm::Align" = type { i8 }
%"class.llvm::Register" = type { i32 }
%"struct.std::_Rb_tree_header" = type { %"struct.std::_Rb_tree_node_base", i64 }
%"struct.std::_Rb_tree_node_base" = type { i32, ptr, ptr, ptr }
%"class.llvm::MachineFunction" = type <{ ptr, ptr, ptr, ptr, ptr, ptr, ptr, ptr, ptr, ptr, ptr, ptr, %"class.std::vector.49", i32, [4 x i8], %"class.llvm::BumpPtrAllocatorImpl", %"class.llvm::Recycler", %"class.llvm::ArrayRecycler", %"class.llvm::Recycler.65", %"class.llvm::iplist", i32, %"struct.llvm::Align", i8, i8, i8, %"class.llvm::MachineFunctionProperties", %"class.std::unique_ptr.66", %"class.std::vector.74", %"class.std::vector.79", %"class.std::vector.79", %"class.std::vector.84", %"class.llvm::DenseMap.89", %"class.llvm::DenseMap.92", %"class.llvm::DenseMap.95", %"class.std::vector.98", i8, i8, i8, i8, i8, i8, [2 x i8], i32, i32, %"class.std::vector.103", %"class.std::vector.108", %"class.std::vector.108", i32, [4 x i8], ptr, ptr, %"class.llvm::DenseMap.113", %"class.llvm::SmallVector.116", i32, [4 x i8], %"class.llvm::SmallVector.121", %"class.llvm::DenseMap.126", i8, [7 x i8] }>
%"class.std::vector.49" = type { %"struct.std::_Vector_base.50" }
%"struct.std::_Vector_base.50" = type { %"struct.std::_Vector_base<llvm::MachineBasicBlock *, std::allocator<llvm::MachineBasicBlock *>>::_Vector_impl" }
%"struct.std::_Vector_base<llvm::MachineBasicBlock *, std::allocator<llvm::MachineBasicBlock *>>::_Vector_impl" = type { %"struct.std::_Vector_base<llvm::MachineBasicBlock *, std::allocator<llvm::MachineBasicBlock *>>::_Vector_impl_data" }
%"struct.std::_Vector_base<llvm::MachineBasicBlock *, std::allocator<llvm::MachineBasicBlock *>>::_Vector_impl_data" = type { ptr, ptr, ptr }
%"class.llvm::BumpPtrAllocatorImpl" = type { ptr, ptr, %"class.llvm::SmallVector", %"class.llvm::SmallVector.55", i64, i64 }
%"class.llvm::SmallVector" = type { %"class.llvm::SmallVectorImpl", %"struct.llvm::SmallVectorStorage" }
%"class.llvm::SmallVectorImpl" = type { %"class.llvm::SmallVectorTemplateBase" }
%"class.llvm::SmallVectorTemplateBase" = type { %"class.llvm::SmallVectorTemplateCommon" }
%"class.llvm::SmallVectorTemplateCommon" = type { %"class.llvm::SmallVectorBase" }
%"class.llvm::SmallVectorBase" = type { ptr, i32, i32 }
%"struct.llvm::SmallVectorStorage" = type { [32 x i8] }
%"class.llvm::SmallVector.55" = type { %"class.llvm::SmallVectorImpl.56" }
%"class.llvm::SmallVectorImpl.56" = type { %"class.llvm::SmallVectorTemplateBase.57" }
%"class.llvm::SmallVectorTemplateBase.57" = type { %"class.llvm::SmallVectorTemplateCommon.58" }
%"class.llvm::SmallVectorTemplateCommon.58" = type { %"class.llvm::SmallVectorBase" }
%"class.llvm::Recycler" = type { ptr }
%"class.llvm::ArrayRecycler" = type { %"class.llvm::SmallVector.60" }
%"class.llvm::SmallVector.60" = type { %"class.llvm::SmallVectorImpl.61", %"struct.llvm::SmallVectorStorage.64" }
%"class.llvm::SmallVectorImpl.61" = type { %"class.llvm::SmallVectorTemplateBase.62" }
%"class.llvm::SmallVectorTemplateBase.62" = type { %"class.llvm::SmallVectorTemplateCommon.63" }
%"class.llvm::SmallVectorTemplateCommon.63" = type { %"class.llvm::SmallVectorBase" }
%"struct.llvm::SmallVectorStorage.64" = type { [64 x i8] }
%"class.llvm::Recycler.65" = type { ptr }
%"class.llvm::iplist" = type { %"class.llvm::iplist_impl" }
%"class.llvm::iplist_impl" = type { %"class.llvm::simple_ilist" }
%"class.llvm::simple_ilist" = type { %"class.llvm::ilist_sentinel" }
%"class.llvm::ilist_sentinel" = type { %"class.llvm::ilist_node_impl" }
%"class.llvm::ilist_node_impl" = type { %"class.llvm::ilist_node_base" }
%"class.llvm::ilist_node_base" = type { %"class.llvm::ilist_detail::node_base_prevnext" }
%"class.llvm::ilist_detail::node_base_prevnext" = type { ptr, ptr }
%"class.llvm::MachineFunctionProperties" = type { %"class.std::bitset" }
%"class.std::bitset" = type { %"struct.std::_Base_bitset" }
%"struct.std::_Base_bitset" = type { i64 }
%"class.std::unique_ptr.66" = type { %"struct.std::__uniq_ptr_data.67" }
%"struct.std::__uniq_ptr_data.67" = type { %"class.std::__uniq_ptr_impl.68" }
%"class.std::__uniq_ptr_impl.68" = type { %"class.std::tuple.69" }
%"class.std::tuple.69" = type { %"struct.std::_Tuple_impl.70" }
%"struct.std::_Tuple_impl.70" = type { %"struct.std::_Head_base.73" }
%"struct.std::_Head_base.73" = type { ptr }
%"class.std::vector.74" = type { %"struct.std::_Vector_base.75" }
%"struct.std::_Vector_base.75" = type { %"struct.std::_Vector_base<llvm::MCCFIInstruction, std::allocator<llvm::MCCFIInstruction>>::_Vector_impl" }
%"struct.std::_Vector_base<llvm::MCCFIInstruction, std::allocator<llvm::MCCFIInstruction>>::_Vector_impl" = type { %"struct.std::_Vector_base<llvm::MCCFIInstruction, std::allocator<llvm::MCCFIInstruction>>::_Vector_impl_data" }
%"struct.std::_Vector_base<llvm::MCCFIInstruction, std::allocator<llvm::MCCFIInstruction>>::_Vector_impl_data" = type { ptr, ptr, ptr }
%"class.std::vector.79" = type { %"struct.std::_Vector_base.80" }
%"struct.std::_Vector_base.80" = type { %"struct.std::_Vector_base<llvm::MCSymbol *, std::allocator<llvm::MCSymbol *>>::_Vector_impl" }
%"struct.std::_Vector_base<llvm::MCSymbol *, std::allocator<llvm::MCSymbol *>>::_Vector_impl" = type { %"struct.std::_Vector_base<llvm::MCSymbol *, std::allocator<llvm::MCSymbol *>>::_Vector_impl_data" }
%"struct.std::_Vector_base<llvm::MCSymbol *, std::allocator<llvm::MCSymbol *>>::_Vector_impl_data" = type { ptr, ptr, ptr }
%"class.std::vector.84" = type { %"struct.std::_Vector_base.85" }
%"struct.std::_Vector_base.85" = type { %"struct.std::_Vector_base<llvm::LandingPadInfo, std::allocator<llvm::LandingPadInfo>>::_Vector_impl" }
%"struct.std::_Vector_base<llvm::LandingPadInfo, std::allocator<llvm::LandingPadInfo>>::_Vector_impl" = type { %"struct.std::_Vector_base<llvm::LandingPadInfo, std::allocator<llvm::LandingPadInfo>>::_Vector_impl_data" }
%"struct.std::_Vector_base<llvm::LandingPadInfo, std::allocator<llvm::LandingPadInfo>>::_Vector_impl_data" = type { ptr, ptr, ptr }
%"class.llvm::DenseMap.89" = type <{ ptr, i32, i32, i32, [4 x i8] }>
%"class.llvm::DenseMap.92" = type <{ ptr, i32, i32, i32, [4 x i8] }>
%"class.llvm::DenseMap.95" = type <{ ptr, i32, i32, i32, [4 x i8] }>
%"class.std::vector.98" = type { %"struct.std::_Vector_base.99" }
%"struct.std::_Vector_base.99" = type { %"struct.std::_Vector_base<std::pair<llvm::MCSymbol *, llvm::MDNode *>, std::allocator<std::pair<llvm::MCSymbol *, llvm::MDNode *>>>::_Vector_impl" }
%"struct.std::_Vector_base<std::pair<llvm::MCSymbol *, llvm::MDNode *>, std::allocator<std::pair<llvm::MCSymbol *, llvm::MDNode *>>>::_Vector_impl" = type { %"struct.std::_Vector_base<std::pair<llvm::MCSymbol *, llvm::MDNode *>, std::allocator<std::pair<llvm::MCSymbol *, llvm::MDNode *>>>::_Vector_impl_data" }
%"struct.std::_Vector_base<std::pair<llvm::MCSymbol *, llvm::MDNode *>, std::allocator<std::pair<llvm::MCSymbol *, llvm::MDNode *>>>::_Vector_impl_data" = type { ptr, ptr, ptr }
%"class.std::vector.103" = type { %"struct.std::_Vector_base.104" }
%"struct.std::_Vector_base.104" = type { %"struct.std::_Vector_base<const llvm::GlobalValue *, std::allocator<const llvm::GlobalValue *>>::_Vector_impl" }
%"struct.std::_Vector_base<const llvm::GlobalValue *, std::allocator<const llvm::GlobalValue *>>::_Vector_impl" = type { %"struct.std::_Vector_base<const llvm::GlobalValue *, std::allocator<const llvm::GlobalValue *>>::_Vector_impl_data" }
%"struct.std::_Vector_base<const llvm::GlobalValue *, std::allocator<const llvm::GlobalValue *>>::_Vector_impl_data" = type { ptr, ptr, ptr }
%"class.std::vector.108" = type { %"struct.std::_Vector_base.109" }
%"struct.std::_Vector_base.109" = type { %"struct.std::_Vector_base<unsigned int, std::allocator<unsigned int>>::_Vector_impl" }
%"struct.std::_Vector_base<unsigned int, std::allocator<unsigned int>>::_Vector_impl" = type { %"struct.std::_Vector_base<unsigned int, std::allocator<unsigned int>>::_Vector_impl_data" }
%"struct.std::_Vector_base<unsigned int, std::allocator<unsigned int>>::_Vector_impl_data" = type { ptr, ptr, ptr }
%"class.llvm::DenseMap.113" = type <{ ptr, i32, i32, i32, [4 x i8] }>
%"class.llvm::SmallVector.116" = type { %"class.llvm::SmallVectorImpl.117", %"struct.llvm::SmallVectorStorage.120" }
%"class.llvm::SmallVectorImpl.117" = type { %"class.llvm::SmallVectorTemplateBase.118" }
%"class.llvm::SmallVectorTemplateBase.118" = type { %"class.llvm::SmallVectorTemplateCommon.119" }
%"class.llvm::SmallVectorTemplateCommon.119" = type { %"class.llvm::SmallVectorBase" }
%"struct.llvm::SmallVectorStorage.120" = type { [128 x i8] }
%"class.llvm::SmallVector.121" = type { %"class.llvm::SmallVectorImpl.122", %"struct.llvm::SmallVectorStorage.125" }
%"class.llvm::SmallVectorImpl.122" = type { %"class.llvm::SmallVectorTemplateBase.123" }
%"class.llvm::SmallVectorTemplateBase.123" = type { %"class.llvm::SmallVectorTemplateCommon.124" }
%"class.llvm::SmallVectorTemplateCommon.124" = type { %"class.llvm::SmallVectorBase" }
%"struct.llvm::SmallVectorStorage.125" = type { [160 x i8] }
%"class.llvm::DenseMap.126" = type <{ ptr, i32, i32, i32, [4 x i8] }>
%"class.llvm::MachineFrameInfo" = type { %"struct.llvm::Align", i8, i8, %"class.std::vector.129", i32, i8, i8, i8, i8, i8, i64, i64, %"struct.llvm::Align", i8, i8, i32, i32, i64, i32, %"class.std::vector.134", i8, %"class.llvm::SmallVector.139", i64, %"struct.llvm::Align", i8, i8, i8, i8, i8, i8, ptr, ptr, i64 }
%"class.std::vector.129" = type { %"struct.std::_Vector_base.130" }
%"struct.std::_Vector_base.130" = type { %"struct.std::_Vector_base<llvm::MachineFrameInfo::StackObject, std::allocator<llvm::MachineFrameInfo::StackObject>>::_Vector_impl" }
%"struct.std::_Vector_base<llvm::MachineFrameInfo::StackObject, std::allocator<llvm::MachineFrameInfo::StackObject>>::_Vector_impl" = type { %"struct.std::_Vector_base<llvm::MachineFrameInfo::StackObject, std::allocator<llvm::MachineFrameInfo::StackObject>>::_Vector_impl_data" }
%"struct.std::_Vector_base<llvm::MachineFrameInfo::StackObject, std::allocator<llvm::MachineFrameInfo::StackObject>>::_Vector_impl_data" = type { ptr, ptr, ptr }
%"class.std::vector.134" = type { %"struct.std::_Vector_base.135" }
%"struct.std::_Vector_base.135" = type { %"struct.std::_Vector_base<llvm::CalleeSavedInfo, std::allocator<llvm::CalleeSavedInfo>>::_Vector_impl" }
%"struct.std::_Vector_base<llvm::CalleeSavedInfo, std::allocator<llvm::CalleeSavedInfo>>::_Vector_impl" = type { %"struct.std::_Vector_base<llvm::CalleeSavedInfo, std::allocator<llvm::CalleeSavedInfo>>::_Vector_impl_data" }
%"struct.std::_Vector_base<llvm::CalleeSavedInfo, std::allocator<llvm::CalleeSavedInfo>>::_Vector_impl_data" = type { ptr, ptr, ptr }
%"class.llvm::SmallVector.139" = type { %"class.llvm::SmallVectorImpl.140", %"struct.llvm::SmallVectorStorage.143" }
%"class.llvm::SmallVectorImpl.140" = type { %"class.llvm::SmallVectorTemplateBase.141" }
%"class.llvm::SmallVectorTemplateBase.141" = type { %"class.llvm::SmallVectorTemplateCommon.142" }
%"class.llvm::SmallVectorTemplateCommon.142" = type { %"class.llvm::SmallVectorBase" }
%"struct.llvm::SmallVectorStorage.143" = type { [512 x i8] }
%"class.llvm::X86MachineFunctionInfo" = type { %"struct.llvm::MachineFunctionInfo", i8, i8, [6 x i8], %"class.llvm::DenseMap.144", i32, i32, i32, i32, i32, %"class.llvm::Register", %"class.llvm::Register", i32, i32, i32, i32, i32, i32, i8, i8, i32, i32, i8, i8, i8, i8, i8, i8, %"class.std::set", i8, ptr, %"class.std::optional.152", %"class.llvm::DenseMap.158", %"class.llvm::SmallVector.161", %"class.llvm::SmallVector.166", i8, i8, i8, i8, %"class.llvm::SmallVector.171" }
%"struct.llvm::MachineFunctionInfo" = type { ptr }
%"class.llvm::DenseMap.144" = type <{ ptr, i32, i32, i32, [4 x i8] }>
%"class.std::set" = type { %"class.std::_Rb_tree.147" }
%"class.std::_Rb_tree.147" = type { %"struct.std::_Rb_tree<llvm::Register, llvm::Register, std::_Identity<llvm::Register>, std::less<llvm::Register>>::_Rb_tree_impl" }
%"struct.std::_Rb_tree<llvm::Register, llvm::Register, std::_Identity<llvm::Register>, std::less<llvm::Register>>::_Rb_tree_impl" = type { [8 x i8], %"struct.std::_Rb_tree_header" }
%"class.std::optional.152" = type { %"struct.std::_Optional_base.153" }
%"struct.std::_Optional_base.153" = type { %"struct.std::_Optional_payload.155" }
%"struct.std::_Optional_payload.155" = type { %"struct.std::_Optional_payload_base.base", [3 x i8] }
%"struct.std::_Optional_payload_base.base" = type <{ %"union.std::_Optional_payload_base<int>::_Storage", i8 }>
%"union.std::_Optional_payload_base<int>::_Storage" = type { i32 }
%"class.llvm::DenseMap.158" = type <{ ptr, i32, i32, i32, [4 x i8] }>
%"class.llvm::SmallVector.161" = type { %"class.llvm::SmallVectorImpl.162" }
%"class.llvm::SmallVectorImpl.162" = type { %"class.llvm::SmallVectorTemplateBase.163" }
%"class.llvm::SmallVectorTemplateBase.163" = type { %"class.llvm::SmallVectorTemplateCommon.164" }
%"class.llvm::SmallVectorTemplateCommon.164" = type { %"class.llvm::SmallVectorBase" }
%"class.llvm::SmallVector.166" = type { %"class.llvm::SmallVectorImpl.167" }
%"class.llvm::SmallVectorImpl.167" = type { %"class.llvm::SmallVectorTemplateBase.168" }
%"class.llvm::SmallVectorTemplateBase.168" = type { %"class.llvm::SmallVectorTemplateCommon.169" }
%"class.llvm::SmallVectorTemplateCommon.169" = type { %"class.llvm::SmallVectorBase" }
%"class.llvm::SmallVector.171" = type { %"class.llvm::SmallVectorImpl.172", %"struct.llvm::SmallVectorStorage.175" }
%"class.llvm::SmallVectorImpl.172" = type { %"class.llvm::SmallVectorTemplateBase.173" }
%"class.llvm::SmallVectorTemplateBase.173" = type { %"class.llvm::SmallVectorTemplateCommon.174" }
%"class.llvm::SmallVectorTemplateCommon.174" = type { %"class.llvm::SmallVectorBase" }
%"struct.llvm::SmallVectorStorage.175" = type { [8 x i8] }

; Function Attrs: mustprogress nounwind uwtable
define linkonce_odr hidden noundef zeroext i1 @_ZNK4llvm22X86MachineFunctionInfo19hasPreallocatedCallEv(ptr noundef nonnull align 8 dereferenceable(272) %0) #1 comdat align 2 {
  %2 = alloca ptr, align 8
  store ptr %0, ptr %2, align 8
  %3 = load ptr, ptr %2, align 8
  %4 = getelementptr inbounds nuw %"class.llvm::X86MachineFunctionInfo", ptr %3, i32 0, i32 25
  %5 = load i8, ptr %4, align 1
  %6 = trunc i8 %5 to i1
  ret i1 %6
}

; Function Attrs: mustprogress nounwind uwtable
define linkonce_odr hidden noundef zeroext i1 @_ZNK4llvm22X86MachineFunctionInfo19getHasPushSequencesEv(ptr noundef nonnull align 8 dereferenceable(272) %0) #1 comdat align 2 {
  %2 = alloca ptr, align 8
  store ptr %0, ptr %2, align 8
  %3 = load ptr, ptr %2, align 8
  %4 = getelementptr inbounds nuw %"class.llvm::X86MachineFunctionInfo", ptr %3, i32 0, i32 18
  %5 = load i8, ptr %4, align 4
  %6 = trunc i8 %5 to i1
  ret i1 %6
}

; Function Attrs: mustprogress nounwind uwtable
define linkonce_odr hidden noundef ptr @_ZNK4llvm15MachineFunction7getInfoINS_22X86MachineFunctionInfoEEEPKT_v(ptr noundef nonnull align 8 dereferenceable(1041) %0) #1 comdat align 2 {
  %2 = alloca ptr, align 8
  store ptr %0, ptr %2, align 8
  %3 = load ptr, ptr %2, align 8
  %4 = getelementptr inbounds nuw %"class.llvm::MachineFunction", ptr %3, i32 0, i32 5
  %5 = load ptr, ptr %4, align 8
  ret ptr %5
}

; Function Attrs: mustprogress nounwind uwtable
define linkonce_odr hidden noundef zeroext i1 @_ZNK4llvm16MachineFrameInfo18hasVarSizedObjectsEv(ptr noundef nonnull align 8 dereferenceable(696) %0) #1 comdat align 2 {
  %2 = alloca ptr, align 8
  store ptr %0, ptr %2, align 8
  %3 = load ptr, ptr %2, align 8
  %4 = getelementptr inbounds nuw %"class.llvm::MachineFrameInfo", ptr %3, i32 0, i32 5
  %5 = load i8, ptr %4, align 4
  %6 = trunc i8 %5 to i1
  ret i1 %6
}

; Function Attrs: mustprogress nounwind uwtable
define linkonce_odr hidden noundef nonnull align 8 dereferenceable(696) ptr @_ZNK4llvm15MachineFunction12getFrameInfoEv(ptr noundef nonnull align 8 dereferenceable(1041) %0) #1 comdat align 2 {
  %2 = alloca ptr, align 8
  store ptr %0, ptr %2, align 8
  %3 = load ptr, ptr %2, align 8
  %4 = getelementptr inbounds nuw %"class.llvm::MachineFunction", ptr %3, i32 0, i32 6
  %5 = load ptr, ptr %4, align 8
  ret ptr %5
}

; Function Attrs: mustprogress nounwind uwtable
define dso_local noundef zeroext i1 @_ZNK4llvm16X86FrameLowering20hasReservedCallFrameERKNS_15MachineFunctionE(ptr noundef nonnull align 8 dereferenceable(60) %0, ptr noundef nonnull align 8 dereferenceable(1041) %1) unnamed_addr #1 align 2 {
  %3 = alloca ptr, align 8
  %4 = alloca ptr, align 8
  store ptr %0, ptr %3, align 8
  store ptr %1, ptr %4, align 8
  %5 = load ptr, ptr %4, align 8
  %6 = call noundef nonnull align 8 dereferenceable(696) ptr @_ZNK4llvm15MachineFunction12getFrameInfoEv(ptr noundef nonnull align 8 dereferenceable(1041) %5)
  %7 = call noundef zeroext i1 @_ZNK4llvm16MachineFrameInfo18hasVarSizedObjectsEv(ptr noundef nonnull align 8 dereferenceable(696) %6)
  br i1 %7, label %17, label %8

8:                                                ; preds = %2
  %9 = load ptr, ptr %4, align 8
  %10 = call noundef ptr @_ZNK4llvm15MachineFunction7getInfoINS_22X86MachineFunctionInfoEEEPKT_v(ptr noundef nonnull align 8 dereferenceable(1041) %9)
  %11 = call noundef zeroext i1 @_ZNK4llvm22X86MachineFunctionInfo19getHasPushSequencesEv(ptr noundef nonnull align 8 dereferenceable(272) %10)
  br i1 %11, label %17, label %12

12:                                               ; preds = %8
  %13 = load ptr, ptr %4, align 8
  %14 = call noundef ptr @_ZNK4llvm15MachineFunction7getInfoINS_22X86MachineFunctionInfoEEEPKT_v(ptr noundef nonnull align 8 dereferenceable(1041) %13)
  %15 = call noundef zeroext i1 @_ZNK4llvm22X86MachineFunctionInfo19hasPreallocatedCallEv(ptr noundef nonnull align 8 dereferenceable(272) %14)
  %16 = xor i1 %15, true
  br label %17

17:                                               ; preds = %12, %8, %2
  %18 = phi i1 [ false, %8 ], [ false, %2 ], [ %16, %12 ]
  ret i1 %18
}